target datalayout = "e-m:e-p270:32:32-p271:32:32-p272:64:64-i64:64-i128:128-f80:128-n8:16:32:64-S128"
target triple = "x86_64-pc-linux-gnu"

%struct._object = type { %union.anon, ptr }
%union.anon = type { i64 }
%struct.PyVarObject = type { %struct._object, i64 }
%struct._typeobject = type { %struct.PyVarObject, ptr, i64, i64, ptr, i64, ptr, ptr, ptr, ptr, ptr, ptr, ptr, ptr, ptr, ptr, ptr, ptr, ptr, i64, ptr, ptr, ptr, ptr, i64, ptr, ptr, ptr, ptr, ptr, ptr, ptr, ptr, ptr, i64, ptr, ptr, ptr, ptr, ptr, ptr, ptr, ptr, ptr, ptr, ptr, i32, ptr, ptr, i8, i16 }
%struct.ctypes_state = type { ptr, ptr, ptr, ptr, ptr, ptr, ptr, ptr, ptr, ptr, ptr, ptr, ptr, ptr, ptr, ptr, ptr, ptr, ptr, ptr, ptr, ptr, ptr, ptr, ptr }
%struct.anon = type { i32, i32 }
%struct.PyModuleObject = type { %struct._object, ptr, ptr, ptr, ptr, ptr }

@PyExc_TypeError = external global ptr, align 8
@PyUnicode_Type = external global %struct._typeobject, align 8
@.str.57 = private unnamed_addr constant [6 x i8] c"LP_%U\00", align 1
@.str.58 = private unnamed_addr constant [7 x i8] c"N(O){}\00", align 1
@.str.59 = private unnamed_addr constant [6 x i8] c"LP_%s\00", align 1
@.str.60 = private unnamed_addr constant [9 x i8] c"N(O){sO}\00", align 1
@.str.61 = private unnamed_addr constant [7 x i8] c"_type_\00", align 1
@.str.62 = private unnamed_addr constant [22 x i8] c"must be a ctypes type\00", align 1

; Function Attrs: alwaysinline nounwind uwtable
define internal void @Py_INCREF(ptr noundef %0) #3 {
  %2 = alloca ptr, align 8
  %3 = alloca i32, align 4
  %4 = alloca i32, align 4
  store ptr %0, ptr %2, align 8, !tbaa !9
  call void @llvm.lifetime.start.p0(i64 4, ptr %3) #10
  %5 = load ptr, ptr %2, align 8, !tbaa !9
  %6 = getelementptr inbounds nuw %struct._object, ptr %5, i32 0, i32 0
  %7 = getelementptr inbounds nuw %struct.anon, ptr %6, i32 0, i32 0
  %8 = load i32, ptr %7, align 8, !tbaa !16
  store i32 %8, ptr %3, align 4, !tbaa !30
  %9 = load i32, ptr %3, align 4, !tbaa !30
  %10 = icmp slt i32 %9, 0
  br i1 %10, label %11, label %12

11:                                               ; preds = %1
  store i32 1, ptr %4, align 4
  br label %18

12:                                               ; preds = %1
  %13 = load i32, ptr %3, align 4, !tbaa !30
  %14 = add i32 %13, 1
  %15 = load ptr, ptr %2, align 8, !tbaa !9
  %16 = getelementptr inbounds nuw %struct._object, ptr %15, i32 0, i32 0
  %17 = getelementptr inbounds nuw %struct.anon, ptr %16, i32 0, i32 0
  store i32 %14, ptr %17, align 8, !tbaa !16
  store i32 0, ptr %4, align 4
  br label %18

18:                                               ; preds = %12, %11
  call void @llvm.lifetime.end.p0(i64 4, ptr %3) #10
  %19 = load i32, ptr %4, align 4
  switch i32 %19, label %21 [
    i32 0, label %20
    i32 1, label %20
  ]

20:                                               ; preds = %18, %18
  ret void

21:                                               ; preds = %18
  unreachable
}

; Function Attrs: inlinehint nounwind uwtable
define internal i32 @PyType_HasFeature(ptr noundef %0, i64 noundef %1) #5 {
  %3 = alloca ptr, align 8
  %4 = alloca i64, align 8
  %5 = alloca i64, align 8
  store ptr %0, ptr %3, align 8, !tbaa !65
  store i64 %1, ptr %4, align 8, !tbaa !32
  call void @llvm.lifetime.start.p0(i64 8, ptr %5) #10
  %6 = load ptr, ptr %3, align 8, !tbaa !65
  %7 = getelementptr inbounds nuw %struct._typeobject, ptr %6, i32 0, i32 19
  %8 = load i64, ptr %7, align 8, !tbaa !90
  store i64 %8, ptr %5, align 8, !tbaa !32
  %9 = load i64, ptr %5, align 8, !tbaa !32
  %10 = load i64, ptr %4, align 8, !tbaa !32
  %11 = and i64 %9, %10
  %12 = icmp ne i64 %11, 0
  %13 = zext i1 %12 to i32
  call void @llvm.lifetime.end.p0(i64 8, ptr %5) #10
  ret i32 %13
}

; Function Attrs: alwaysinline nounwind uwtable
define internal i32 @_Py_IsImmortal(ptr noundef %0) #3 {
  %2 = alloca ptr, align 8
  store ptr %0, ptr %2, align 8, !tbaa !9
  %3 = load ptr, ptr %2, align 8, !tbaa !9
  %4 = getelementptr inbounds nuw %struct._object, ptr %3, i32 0, i32 0
  %5 = getelementptr inbounds nuw %struct.anon, ptr %4, i32 0, i32 0
  %6 = load i32, ptr %5, align 8, !tbaa !16
  %7 = icmp slt i32 %6, 0
  %8 = zext i1 %7 to i32
  ret i32 %8
}

; Function Attrs: inlinehint nounwind uwtable
define internal ptr @_PyModule_GetState(ptr noundef %0) #5 {
  %2 = alloca ptr, align 8
  store ptr %0, ptr %2, align 8, !tbaa !9
  %3 = load ptr, ptr %2, align 8, !tbaa !9
  %4 = getelementptr inbounds nuw %struct.PyModuleObject, ptr %3, i32 0, i32 3
  %5 = load ptr, ptr %4, align 8, !tbaa !91
  ret ptr %5
}

; Function Attrs: inlinehint nounwind uwtable
define internal ptr @_Py_NewRef(ptr noundef %0) #5 {
  %2 = alloca ptr, align 8
  store ptr %0, ptr %2, align 8, !tbaa !9
  %3 = load ptr, ptr %2, align 8, !tbaa !9
  call void @Py_INCREF(ptr noundef %3)
  %4 = load ptr, ptr %2, align 8, !tbaa !9
  ret ptr %4
}

; Function Attrs: inlinehint nounwind uwtable
define internal i32 @PyType_Check(ptr noundef %0) #5 {
  %2 = alloca ptr, align 8
  store ptr %0, ptr %2, align 8, !tbaa !9
  %3 = load ptr, ptr %2, align 8, !tbaa !9
  %4 = call ptr @_Py_TYPE(ptr noundef %3)
  %5 = call i32 @PyType_HasFeature(ptr noundef %4, i64 noundef 2147483648)
  ret i32 %5
}

; Function Attrs: alwaysinline nounwind uwtable
define internal void @Py_DECREF(ptr noundef %0) #3 {
  %2 = alloca ptr, align 8
  store ptr %0, ptr %2, align 8, !tbaa !9
  %3 = load ptr, ptr %2, align 8, !tbaa !9
  %4 = call i32 @_Py_IsImmortal(ptr noundef %3)
  %5 = icmp ne i32 %4, 0
  br i1 %5, label %6, label %7

6:                                                ; preds = %1
  br label %16

7:                                                ; preds = %1
  %8 = load ptr, ptr %2, align 8, !tbaa !9
  %9 = getelementptr inbounds nuw %struct._object, ptr %8, i32 0, i32 0
  %10 = getelementptr inbounds nuw %struct.anon, ptr %9, i32 0, i32 0
  %11 = load i32, ptr %10, align 8, !tbaa !16
  %12 = add i32 %11, -1
  store i32 %12, ptr %10, align 8, !tbaa !16
  %13 = icmp eq i32 %12, 0
  br i1 %13, label %14, label %16

14:                                               ; preds = %7
  %15 = load ptr, ptr %2, align 8, !tbaa !9
  call void @_Py_Dealloc(ptr noundef %15)
  br label %16

16:                                               ; preds = %6, %14, %7
  ret void
}

; Function Attrs: inlinehint nounwind uwtable
define internal ptr @_Py_TYPE(ptr noundef %0) #5 {
  %2 = alloca ptr, align 8
  store ptr %0, ptr %2, align 8, !tbaa !9
  %3 = load ptr, ptr %2, align 8, !tbaa !9
  %4 = getelementptr inbounds nuw %struct._object, ptr %3, i32 0, i32 1
  %5 = load ptr, ptr %4, align 8, !tbaa !29
  ret ptr %5
}

; Function Attrs: inlinehint nounwind uwtable
define internal i32 @Py_IS_TYPE(ptr noundef %0, ptr noundef %1) #5 {
  %3 = alloca ptr, align 8
  %4 = alloca ptr, align 8
  store ptr %0, ptr %3, align 8, !tbaa !9
  store ptr %1, ptr %4, align 8, !tbaa !65
  %5 = load ptr, ptr %3, align 8, !tbaa !9
  %6 = call ptr @_Py_TYPE(ptr noundef %5)
  %7 = load ptr, ptr %4, align 8, !tbaa !65
  %8 = icmp eq ptr %6, %7
  %9 = zext i1 %8 to i32
  ret i32 %9
}

; Function Attrs: inlinehint nounwind uwtable
define internal ptr @get_module_state(ptr noundef %0) #5 {
  %2 = alloca ptr, align 8
  %3 = alloca ptr, align 8
  store ptr %0, ptr %2, align 8, !tbaa !9
  call void @llvm.lifetime.start.p0(i64 8, ptr %3) #10
  %4 = load ptr, ptr %2, align 8, !tbaa !9
  %5 = call ptr @_PyModule_GetState(ptr noundef %4)
  store ptr %5, ptr %3, align 8, !tbaa !3
  %6 = load ptr, ptr %3, align 8, !tbaa !3
  call void @llvm.lifetime.end.p0(i64 8, ptr %3) #10
  ret ptr %6
}

; Function Attrs: nounwind uwtable
define internal ptr @create_pointer_type(ptr noundef %0, ptr noundef %1) #0 {
  %3 = alloca ptr, align 8
  %4 = alloca ptr, align 8
  %5 = alloca ptr, align 8
  %6 = alloca ptr, align 8
  %7 = alloca ptr, align 8
  %8 = alloca ptr, align 8
  %9 = alloca ptr, align 8
  %10 = alloca i32, align 4
  %11 = alloca ptr, align 8
  %12 = alloca ptr, align 8
  store ptr %0, ptr %4, align 8, !tbaa !9
  store ptr %1, ptr %5, align 8, !tbaa !9
  call void @llvm.lifetime.start.p0(i64 8, ptr %6) #10
  call void @llvm.lifetime.start.p0(i64 8, ptr %7) #10
  call void @llvm.lifetime.start.p0(i64 8, ptr %8) #10
  call void @llvm.lifetime.start.p0(i64 8, ptr %9) #10
  %13 = load ptr, ptr %4, align 8, !tbaa !9
  %14 = call ptr @get_module_state(ptr noundef %13)
  store ptr %14, ptr %9, align 8, !tbaa !3
  %15 = load ptr, ptr %9, align 8, !tbaa !3
  %16 = getelementptr inbounds nuw %struct.ctypes_state, ptr %15, i32 0, i32 19
  %17 = load ptr, ptr %16, align 8, !tbaa !63
  %18 = load ptr, ptr %5, align 8, !tbaa !9
  %19 = call i32 @PyDict_GetItemRef(ptr noundef %17, ptr noundef %18, ptr noundef %6)
  %20 = icmp ne i32 %19, 0
  br i1 %20, label %21, label %23

21:                                               ; preds = %2
  %22 = load ptr, ptr %6, align 8, !tbaa !9
  store ptr %22, ptr %3, align 8
  store i32 1, ptr %10, align 4
  br label %101

23:                                               ; preds = %2
  %24 = load ptr, ptr %5, align 8, !tbaa !9
  %25 = call i32 @Py_IS_TYPE(ptr noundef %24, ptr noundef @PyUnicode_Type)
  %26 = icmp ne i32 %25, 0
  br i1 %26, label %27, label %54

27:                                               ; preds = %23
  call void @llvm.lifetime.start.p0(i64 8, ptr %11) #10
  %28 = load ptr, ptr %5, align 8, !tbaa !9
  %29 = call ptr (ptr, ...) @PyUnicode_FromFormat(ptr noundef @.str.57, ptr noundef %28)
  store ptr %29, ptr %11, align 8, !tbaa !9
  %30 = load ptr, ptr %9, align 8, !tbaa !3
  %31 = getelementptr inbounds nuw %struct.ctypes_state, ptr %30, i32 0, i32 17
  %32 = load ptr, ptr %31, align 8, !tbaa !64
  %33 = call ptr @_Py_TYPE(ptr noundef %32)
  %34 = load ptr, ptr %11, align 8, !tbaa !9
  %35 = load ptr, ptr %9, align 8, !tbaa !3
  %36 = getelementptr inbounds nuw %struct.ctypes_state, ptr %35, i32 0, i32 17
  %37 = load ptr, ptr %36, align 8, !tbaa !64
  %38 = call ptr (ptr, ptr, ...) @PyObject_CallFunction(ptr noundef %33, ptr noundef @.str.58, ptr noundef %34, ptr noundef %37)
  store ptr %38, ptr %6, align 8, !tbaa !9
  %39 = load ptr, ptr %6, align 8, !tbaa !9
  %40 = icmp eq ptr %39, null
  br i1 %40, label %41, label %43

41:                                               ; preds = %27
  %42 = load ptr, ptr %6, align 8, !tbaa !9
  store ptr %42, ptr %3, align 8
  store i32 1, ptr %10, align 4
  br label %51

43:                                               ; preds = %27
  %44 = load ptr, ptr %6, align 8, !tbaa !9
  %45 = call ptr @PyLong_FromVoidPtr(ptr noundef %44)
  store ptr %45, ptr %8, align 8, !tbaa !9
  %46 = load ptr, ptr %8, align 8, !tbaa !9
  %47 = icmp eq ptr %46, null
  br i1 %47, label %48, label %50

48:                                               ; preds = %43
  %49 = load ptr, ptr %6, align 8, !tbaa !9
  call void @Py_DECREF(ptr noundef %49)
  store ptr null, ptr %3, align 8
  store i32 1, ptr %10, align 4
  br label %51

50:                                               ; preds = %43
  store i32 0, ptr %10, align 4
  br label %51

51:                                               ; preds = %50, %48, %41
  call void @llvm.lifetime.end.p0(i64 8, ptr %11) #10
  %52 = load i32, ptr %10, align 4
  switch i32 %52, label %101 [
    i32 0, label %53
  ]

53:                                               ; preds = %51
  br label %87

54:                                               ; preds = %23
  %55 = load ptr, ptr %5, align 8, !tbaa !9
  %56 = call i32 @PyType_Check(ptr noundef %55)
  %57 = icmp ne i32 %56, 0
  br i1 %57, label %58, label %84

58:                                               ; preds = %54
  %59 = load ptr, ptr %5, align 8, !tbaa !9
  store ptr %59, ptr %7, align 8, !tbaa !65
  call void @llvm.lifetime.start.p0(i64 8, ptr %12) #10
  %60 = load ptr, ptr %7, align 8, !tbaa !65
  %61 = getelementptr inbounds nuw %struct._typeobject, ptr %60, i32 0, i32 1
  %62 = load ptr, ptr %61, align 8, !tbaa !66
  %63 = call ptr (ptr, ...) @PyUnicode_FromFormat(ptr noundef @.str.59, ptr noundef %62)
  store ptr %63, ptr %12, align 8, !tbaa !9
  %64 = load ptr, ptr %9, align 8, !tbaa !3
  %65 = getelementptr inbounds nuw %struct.ctypes_state, ptr %64, i32 0, i32 17
  %66 = load ptr, ptr %65, align 8, !tbaa !64
  %67 = call ptr @_Py_TYPE(ptr noundef %66)
  %68 = load ptr, ptr %12, align 8, !tbaa !9
  %69 = load ptr, ptr %9, align 8, !tbaa !3
  %70 = getelementptr inbounds nuw %struct.ctypes_state, ptr %69, i32 0, i32 17
  %71 = load ptr, ptr %70, align 8, !tbaa !64
  %72 = load ptr, ptr %5, align 8, !tbaa !9
  %73 = call ptr (ptr, ptr, ...) @PyObject_CallFunction(ptr noundef %67, ptr noundef @.str.60, ptr noundef %68, ptr noundef %71, ptr noundef @.str.61, ptr noundef %72)
  store ptr %73, ptr %6, align 8, !tbaa !9
  %74 = load ptr, ptr %6, align 8, !tbaa !9
  %75 = icmp eq ptr %74, null
  br i1 %75, label %76, label %78

76:                                               ; preds = %58
  %77 = load ptr, ptr %6, align 8, !tbaa !9
  store ptr %77, ptr %3, align 8
  store i32 1, ptr %10, align 4
  br label %81

78:                                               ; preds = %58
  %79 = load ptr, ptr %5, align 8, !tbaa !9
  %80 = call ptr @_Py_NewRef(ptr noundef %79)
  store ptr %80, ptr %8, align 8, !tbaa !9
  store i32 0, ptr %10, align 4
  br label %81

81:                                               ; preds = %78, %76
  call void @llvm.lifetime.end.p0(i64 8, ptr %12) #10
  %82 = load i32, ptr %10, align 4
  switch i32 %82, label %101 [
    i32 0, label %83
  ]

83:                                               ; preds = %81
  br label %86

84:                                               ; preds = %54
  %85 = load ptr, ptr @PyExc_TypeError, align 8, !tbaa !9
  call void @PyErr_SetString(ptr noundef %85, ptr noundef @.str.62)
  store ptr null, ptr %3, align 8
  store i32 1, ptr %10, align 4
  br label %101

86:                                               ; preds = %83
  br label %87

87:                                               ; preds = %86, %53
  %88 = load ptr, ptr %9, align 8, !tbaa !3
  %89 = getelementptr inbounds nuw %struct.ctypes_state, ptr %88, i32 0, i32 19
  %90 = load ptr, ptr %89, align 8, !tbaa !63
  %91 = load ptr, ptr %8, align 8, !tbaa !9
  %92 = load ptr, ptr %6, align 8, !tbaa !9
  %93 = call i32 @PyDict_SetItem(ptr noundef %90, ptr noundef %91, ptr noundef %92)
  %94 = icmp slt i32 %93, 0
  br i1 %94, label %95, label %98

95:                                               ; preds = %87
  %96 = load ptr, ptr %6, align 8, !tbaa !9
  call void @Py_DECREF(ptr noundef %96)
  %97 = load ptr, ptr %8, align 8, !tbaa !9
  call void @Py_DECREF(ptr noundef %97)
  store ptr null, ptr %3, align 8
  store i32 1, ptr %10, align 4
  br label %101

98:                                               ; preds = %87
  %99 = load ptr, ptr %8, align 8, !tbaa !9
  call void @Py_DECREF(ptr noundef %99)
  %100 = load ptr, ptr %6, align 8, !tbaa !9
  store ptr %100, ptr %3, align 8
  store i32 1, ptr %10, align 4
  br label %101

101:                                              ; preds = %98, %95, %84, %81, %51, %21
  call void @llvm.lifetime.end.p0(i64 8, ptr %9) #10
  call void @llvm.lifetime.end.p0(i64 8, ptr %8) #10
  call void @llvm.lifetime.end.p0(i64 8, ptr %7) #10
  call void @llvm.lifetime.end.p0(i64 8, ptr %6) #10
  %102 = load ptr, ptr %3, align 8
  ret ptr %102
}